; Function Attrs: mustprogress uwtable
define hidden void @_ZN8facebook6hermes7tracing16TraceInterpreter17ifObjectAddToDefsERKNS1_10SynthTrace10TraceValueEONS_3jsi5ValueERKNS2_4CallEmRSt13unordered_mapImS8_St4hashImESt8equal_toImESaISt4pairIKmS8_EEEb(ptr noundef nonnull align 8 dereferenceable(576) %this, ptr nocapture noundef nonnull readonly align 8 dereferenceable(16) %traceValue, ptr noundef nonnull align 8 dereferenceable(16) %val, ptr noundef nonnull align 8 dereferenceable(80) %call, i64 noundef %globalRecordNum, ptr noundef nonnull align 8 dereferenceable(56) %locals, i1 noundef zeroext %isThis) local_unnamed_addr #3 align 2 personality ptr @__gxx_personality_v0 {
entry:
  %ref.tmp.i.i = alloca %"class.facebook::jsi::Value", align 8
  %0 = load i32, ptr %traceValue, align 8
  switch i32 %0, label %if.end [
    i32 4, label %if.then
    i32 5, label %if.then
    i32 7, label %if.then
  ]

if.then:                                          ; preds = %entry, %entry, %entry
  %val_.i = getelementptr inbounds i8, ptr %traceValue, i64 8
  %1 = load i64, ptr %val_.i, align 8
  %gom_.i = getelementptr inbounds i8, ptr %this, i64 416
  call void @llvm.lifetime.start.p0(i64 16, ptr nonnull %ref.tmp.i.i)
  %2 = load ptr, ptr %this, align 8
  call void @_ZN8facebook3jsi5ValueC1ERNS0_7RuntimeERKS1_(ptr noundef nonnull align 8 dereferenceable(16) %ref.tmp.i.i, ptr noundef nonnull align 8 dereferenceable(8) %2, ptr noundef nonnull align 8 dereferenceable(16) %val)
  invoke void @_ZN8facebook6hermes7tracing16TraceInterpreter14addValueToDefsINS_3jsi5ValueEEEvRKNS2_4CallEmmOT_RSt13unordered_mapImS9_St4hashImESt8equal_toImESaISt4pairIKmS9_EEESL_(ptr noundef nonnull align 8 dereferenceable(576) %this, ptr noundef nonnull align 8 dereferenceable(80) %call, i64 noundef %1, i64 noundef %globalRecordNum, ptr noundef nonnull align 8 dereferenceable(16) %ref.tmp.i.i, ptr noundef nonnull align 8 dereferenceable(56) %locals, ptr noundef nonnull align 8 dereferenceable(56) %gom_.i)
          to label %_ZN8facebook6hermes7tracing16TraceInterpreter17addJSIValueToDefsERKNS2_4CallEmmONS_3jsi5ValueERSt13unordered_mapImS7_St4hashImESt8equal_toImESaISt4pairIKmS7_EEE.exit unwind label %lpad.i.i

lpad.i.i:                                         ; preds = %if.then
  %3 = landingpad { ptr, i32 }
          cleanup
  call void @_ZN8facebook3jsi5ValueD1Ev(ptr noundef nonnull align 8 dereferenceable(16) %ref.tmp.i.i) #29
  resume { ptr, i32 } %3

_ZN8facebook6hermes7tracing16TraceInterpreter17addJSIValueToDefsERKNS2_4CallEmmONS_3jsi5ValueERSt13unordered_mapImS7_St4hashImESt8equal_toImESaISt4pairIKmS7_EEE.exit: ; preds = %if.then
  call void @_ZN8facebook3jsi5ValueD1Ev(ptr noundef nonnull align 8 dereferenceable(16) %ref.tmp.i.i) #29
  call void @llvm.lifetime.end.p0(i64 16, ptr nonnull %ref.tmp.i.i)
  br label %if.end

if.end:                                           ; preds = %entry, %_ZN8facebook6hermes7tracing16TraceInterpreter17addJSIValueToDefsERKNS2_4CallEmmONS_3jsi5ValueERSt13unordered_mapImS7_St4hashImESt8equal_toImESaISt4pairIKmS7_EEE.exit
  ret void
}